(lp0
(iclusterdata
SummaryData
p1
(dp2
S'totalDist'
p3
F5277.0256295931695
sS'netLost'
p4
F372.16306660104965
sS'goodRecords'
p5
I116
sS'avgHR'
p6
F111.82758620689656
sS'timeSeconds'
p7
I577
sS'badRecords'
p8
I0
sS'lap'
p9
S'1'
p10
sS'netGained'
p11
F140.34922047244095
sba(iclusterdata
SummaryData
p12
(dp13
g3
F727.462167650916
sg4
F6.308167650918605
sg5
I16
sg6
F149.3125
sg7
I54
sg8
I0
sg9
S'10'
p14
sg11
F64.65561417322829
sba(iclusterdata
SummaryData
p15
(dp16
g3
F0.8057923228370782
sg4
F0.0
sg5
I2
sg6
F170.5
sg7
I1
sg8
I0
sg9
S'11'
p17
sg11
F3.1542841207348715
sba(iclusterdata
SummaryData
p18
(dp19
g3
F5281.327615485559
sg4
F305.9339146981624
sg5
I109
sg6
F136.40366972477065
sg7
I582
sg8
I0
sg9
S'2'
p20
sg11
F329.5882414698159
sba(iclusterdata
SummaryData
p21
(dp22
g3
F3933.6189012467166
sg4
F140.35002132545918
sg5
I77
sg6
F145.75324675324674
sg7
I458
sg8
I0
sg9
S'3'
p23
sg11
F175.04354166666644
sba(iclusterdata
SummaryData
p24
(dp25
g3
F838.2545931758523
sg4
F14.193076771653523
sg5
I17
sg6
F143.2941176470588
sg7
I66
sg8
I0
sg9
S'4'
p26
sg11
F48.886196522309646
sba(iclusterdata
SummaryData
p27
(dp28
g3
F806.2904337270338
sg4
F88.31034219160098
sg5
I26
sg6
F134.6153846153846
sg7
I146
sg8
I4
sg9
S'5'
p29
sg11
F37.84740419947505
sba(iclusterdata
SummaryData
p30
(dp31
g3
F776.7484570209963
sg4
F0.0
sg5
I18
sg6
F146.61111111111111
sg7
I59
sg8
I0
sg9
S'6'
p32
sg11
F53.61722211286083
sba(iclusterdata
SummaryData
p33
(dp34
g3
F808.6213041338597
sg4
F97.7711922572177
sg5
I29
sg6
F136.31034482758622
sg7
I176
sg8
I0
sg9
S'7'
p35
sg11
F56.77070603674532
sba(iclusterdata
SummaryData
p36
(dp37
g3
F772.1604074803145
sg4
F12.614733267716517
sg5
I19
sg6
F145.0
sg7
I58
sg8
I0
sg9
S'8'
p38
sg11
F48.88499507874009
sba(iclusterdata
SummaryData
p39
(dp40
g3
F835.7523116797856
sg4
F93.04096686351696
sg5
I30
sg6
F135.86666666666667
sg7
I193
sg8
I3
sg9
S'9'
p41
sg11
F50.46293799212593
sba.