(iclusterdata
SummaryData
p0
(dp1
S'totalDist'
p2
F5277.0256295931695
sS'netLost'
p3
F372.16306660104965
sS'goodRecords'
p4
I116
sS'avgHR'
p5
F111.82758620689656
sS'timeSeconds'
p6
I577
sS'badRecords'
p7
I0
sS'lap'
p8
S'1'
p9
sS'netGained'
p10
F140.34922047244095
sb.(iclusterdata
SummaryData
p0
(dp1
S'totalDist'
p2
F727.462167650916
sS'netLost'
p3
F6.308167650918605
sS'goodRecords'
p4
I16
sS'avgHR'
p5
F149.3125
sS'timeSeconds'
p6
I54
sS'badRecords'
p7
I0
sS'lap'
p8
S'10'
p9
sS'netGained'
p10
F64.65561417322829
sb.(iclusterdata
SummaryData
p0
(dp1
S'totalDist'
p2
F0.8057923228370782
sS'netLost'
p3
F0.0
sS'goodRecords'
p4
I2
sS'avgHR'
p5
F170.5
sS'timeSeconds'
p6
I1
sS'badRecords'
p7
I0
sS'lap'
p8
S'11'
p9
sS'netGained'
p10
F3.1542841207348715
sb.(iclusterdata
SummaryData
p0
(dp1
S'totalDist'
p2
F5281.327615485559
sS'netLost'
p3
F305.9339146981624
sS'goodRecords'
p4
I109
sS'avgHR'
p5
F136.40366972477065
sS'timeSeconds'
p6
I582
sS'badRecords'
p7
I0
sS'lap'
p8
S'2'
p9
sS'netGained'
p10
F329.5882414698159
sb.(iclusterdata
SummaryData
p0
(dp1
S'totalDist'
p2
F3933.6189012467166
sS'netLost'
p3
F140.35002132545918
sS'goodRecords'
p4
I77
sS'avgHR'
p5
F145.75324675324674
sS'timeSeconds'
p6
I458
sS'badRecords'
p7
I0
sS'lap'
p8
S'3'
p9
sS'netGained'
p10
F175.04354166666644
sb.(iclusterdata
SummaryData
p0
(dp1
S'totalDist'
p2
F838.2545931758523
sS'netLost'
p3
F14.193076771653523
sS'goodRecords'
p4
I17
sS'avgHR'
p5
F143.2941176470588
sS'timeSeconds'
p6
I66
sS'badRecords'
p7
I0
sS'lap'
p8
S'4'
p9
sS'netGained'
p10
F48.886196522309646
sb.(iclusterdata
SummaryData
p0
(dp1
S'totalDist'
p2
F806.2904337270338
sS'netLost'
p3
F88.31034219160098
sS'goodRecords'
p4
I26
sS'avgHR'
p5
F134.6153846153846
sS'timeSeconds'
p6
I146
sS'badRecords'
p7
I4
sS'lap'
p8
S'5'
p9
sS'netGained'
p10
F37.84740419947505
sb.(iclusterdata
SummaryData
p0
(dp1
S'totalDist'
p2
F776.7484570209963
sS'netLost'
p3
F0.0
sS'goodRecords'
p4
I18
sS'avgHR'
p5
F146.61111111111111
sS'timeSeconds'
p6
I59
sS'badRecords'
p7
I0
sS'lap'
p8
S'6'
p9
sS'netGained'
p10
F53.61722211286083
sb.(iclusterdata
SummaryData
p0
(dp1
S'totalDist'
p2
F808.6213041338597
sS'netLost'
p3
F97.7711922572177
sS'goodRecords'
p4
I29
sS'avgHR'
p5
F136.31034482758622
sS'timeSeconds'
p6
I176
sS'badRecords'
p7
I0
sS'lap'
p8
S'7'
p9
sS'netGained'
p10
F56.77070603674532
sb.(iclusterdata
SummaryData
p0
(dp1
S'totalDist'
p2
F772.1604074803145
sS'netLost'
p3
F12.614733267716517
sS'goodRecords'
p4
I19
sS'avgHR'
p5
F145.0
sS'timeSeconds'
p6
I58
sS'badRecords'
p7
I0
sS'lap'
p8
S'8'
p9
sS'netGained'
p10
F48.88499507874009
sb.(iclusterdata
SummaryData
p0
(dp1
S'totalDist'
p2
F835.7523116797856
sS'netLost'
p3
F93.04096686351696
sS'goodRecords'
p4
I30
sS'avgHR'
p5
F135.86666666666667
sS'timeSeconds'
p6
I193
sS'badRecords'
p7
I3
sS'lap'
p8
S'9'
p9
sS'netGained'
p10
F50.46293799212593
sb.